; ModuleID = '54/217.c'
source_filename = "54/217.c"
target datalayout = "e-m:e-p270:32:32-p271:32:32-p272:64:64-i64:64-f80:128-n8:16:32:64-S128"
target triple = "x86_64-pc-linux-gnu"

@.str = private unnamed_addr constant [6 x i8] c"%d %d\00", align 1
@.str.1 = private unnamed_addr constant [3 x i8] c"%d\00", align 1

; Function Attrs: noinline nounwind uwtable
define dso_local void @main() #0 {
  %1 = alloca i32, align 4
  %2 = alloca i32, align 4
  %3 = alloca i32, align 4
  %4 = alloca i32, align 4
  %5 = alloca i32, align 4
  %6 = alloca i32, align 4
  %7 = call i32 (i8*, ...) @__isoc99_scanf(i8* getelementptr inbounds ([6 x i8], [6 x i8]* @.str, i64 0, i64 0), i32* %1, i32* %2)
  %8 = load i32, i32* %1, align 4
  %9 = sitofp i32 %8 to double
  %10 = load i32, i32* %1, align 4
  %11 = sitofp i32 %10 to double
  %12 = call double @pow(double %9, double %11) #3
  %13 = fptosi double %12 to i32
  store i32 %13, i32* %5, align 4
  %14 = load i32, i32* %1, align 4
  %15 = sub nsw i32 %14, 1
  %16 = sitofp i32 %15 to double
  %17 = load i32, i32* %1, align 4
  %18 = sitofp i32 %17 to double
  %19 = call double @pow(double %16, double %18) #3
  %20 = fptosi double %19 to i32
  store i32 %20, i32* %6, align 4
  store i32 1, i32* %4, align 4
  br label %21

21:                                               ; preds = %33, %0
  %22 = load i32, i32* %4, align 4
  %23 = load i32, i32* %2, align 4
  %24 = load i32, i32* %1, align 4
  %25 = sub nsw i32 %24, 1
  %26 = mul nsw i32 %23, %25
  %27 = add nsw i32 %22, %26
  %28 = load i32, i32* %6, align 4
  %29 = srem i32 %27, %28
  %30 = icmp eq i32 %29, 0
  br i1 %30, label %31, label %32

31:                                               ; preds = %21
  br label %36

32:                                               ; preds = %21
  br label %33

33:                                               ; preds = %32
  %34 = load i32, i32* %4, align 4
  %35 = add nsw i32 %34, 1
  store i32 %35, i32* %4, align 4
  br label %21

36:                                               ; preds = %31
  %37 = load i32, i32* %4, align 4
  %38 = load i32, i32* %2, align 4
  %39 = load i32, i32* %1, align 4
  %40 = sub nsw i32 %39, 1
  %41 = mul nsw i32 %38, %40
  %42 = add nsw i32 %37, %41
  %43 = load i32, i32* %6, align 4
  %44 = sdiv i32 %42, %43
  %45 = load i32, i32* %5, align 4
  %46 = mul nsw i32 %44, %45
  %47 = load i32, i32* %2, align 4
  %48 = load i32, i32* %1, align 4
  %49 = sub nsw i32 %48, 1
  %50 = mul nsw i32 %47, %49
  %51 = sub nsw i32 %46, %50
  store i32 %51, i32* %3, align 4
  %52 = load i32, i32* %3, align 4
  %53 = call i32 (i8*, ...) @printf(i8* getelementptr inbounds ([3 x i8], [3 x i8]* @.str.1, i64 0, i64 0), i32 %52)
  ret void
}

declare dso_local i32 @__isoc99_scanf(i8*, ...) #1

; Function Attrs: nounwind
declare dso_local double @pow(double, double) #2

declare dso_local i32 @printf(i8*, ...) #1


!llvm.module.flags = !{!0}
!llvm.ident = !{!1}

!0 = !{i32 1, !"wchar_size", i32 4}
!1 = !{!"clang version 10.0.0-4ubuntu1 "}
